; Function Attrs: nounwind uwtable
define void @X509_REQ_set0_signature(ptr noundef captures(none) %0, ptr noundef %1) local_unnamed_addr #0 {
  %3 = getelementptr inbounds nuw i8, ptr %0, i64 72
  %4 = load ptr, ptr %3, align 8, !tbaa !57
  %.not = icmp eq ptr %4, null
  br i1 %.not, label %6, label %5

5:                                                ; preds = %2
  tail call void @ASN1_BIT_STRING_free(ptr noundef nonnull %4) #8
  br label %6

6:                                                ; preds = %5, %2
  store ptr %1, ptr %3, align 8, !tbaa !57
  ret void
}